target datalayout = "e-m:e-p270:32:32-p271:32:32-p272:64:64-i64:64-i128:128-f80:128-n8:16:32:64-S128"
target triple = "x86_64-pc-linux-gnu"

%struct.curl_trc_feat = type { ptr, i32 }
%struct.Curl_easy = type { i32, i64, i64, ptr, %struct.Curl_llist_node, %struct.Curl_llist_node, i32, i32, %struct.Curl_message, %struct.easy_pollset, %struct.Names, ptr, ptr, ptr, %struct.SingleRequest, %struct.UserDefined, ptr, ptr, %struct.Progress, %struct.UrlState, ptr, %struct.PureInfo, %struct.curl_tlssessioninfo }
%struct.Curl_llist_node = type { ptr, ptr, ptr, ptr }
%struct.Curl_message = type { %struct.Curl_llist_node, %struct.CURLMsg }
%struct.CURLMsg = type { i32, ptr, %union.anon }
%union.anon = type { ptr }
%struct.easy_pollset = type { [5 x i32], i32, [5 x i8] }
%struct.Names = type { ptr, i32 }
%struct.SingleRequest = type <{ i64, i64, i64, i64, %struct.curltime, i32, i32, i32, i32, i64, i32, i32, i32, i32, ptr, ptr, %struct.bufq, i64, i64, ptr, ptr, %union.anon.0, ptr, i8, i32, [3 x i8] }>
%struct.curltime = type { i64, i32 }
%struct.bufq = type { ptr, ptr, ptr, ptr, i64, i64, i64, i32 }
%union.anon.0 = type { ptr }
%struct.UserDefined = type <{ ptr, ptr, ptr, ptr, ptr, ptr, i16, [6 x i8], i64, i64, i64, ptr, ptr, i64, i16, i16, [4 x i8], ptr, ptr, ptr, ptr, ptr, ptr, ptr, ptr, ptr, ptr, ptr, ptr, ptr, ptr, ptr, ptr, ptr, ptr, ptr, ptr, ptr, ptr, ptr, i32, i32, i32, i32, i32, [4 x i8], i64, i64, i64, i64, i64, i64, i64, i64, ptr, ptr, %struct.curl_mimepart, ptr, ptr, i64, i8, i8, i8, [5 x i8], %struct.ssl_config_data, %struct.ssl_config_data, ptr, i16, i8, i8, [4 x i8], %struct.ssl_general_config, i32, i32, i32, [4 x i8], ptr, ptr, i8, [7 x i8], i64, i8, i8, i8, i8, i32, ptr, ptr, ptr, i8, i8, [2 x i8], i32, [63 x ptr], [8 x ptr], i32, i32, i32, [4 x i8], ptr, ptr, ptr, ptr, ptr, i8, [3 x i8], i32, i32, i32, i64, %struct.Curl_data_priority, ptr, ptr, i64, ptr, i64, ptr, ptr, ptr, i8, [3 x i8], i32, i8, i8, i64, [6 x i8] }>
%struct.curl_mimepart = type { ptr, ptr, i32, i32, ptr, ptr, ptr, ptr, ptr, ptr, ptr, ptr, ptr, ptr, ptr, i64, %struct.mime_state, ptr, %struct.mime_encoder_state, i64 }
%struct.mime_state = type { i32, ptr, i64 }
%struct.mime_encoder_state = type { i64, i64, i64, [256 x i8] }
%struct.ssl_config_data = type { %struct.ssl_primary_config, i64, ptr, ptr, ptr, ptr, ptr, ptr, ptr, i16 }
%struct.ssl_primary_config = type { ptr, ptr, ptr, ptr, ptr, ptr, ptr, ptr, ptr, ptr, ptr, ptr, i8, i32, i8, i8 }
%struct.ssl_general_config = type { i64, i32 }
%struct.Curl_data_priority = type { ptr, ptr, i32, i8 }
%struct.Progress = type { i64, %struct.pgrs_dir, %struct.pgrs_dir, i64, i64, i32, i32, i64, i64, i64, i64, i64, i64, i64, i64, i64, %struct.curltime, %struct.curltime, %struct.curltime, %struct.curltime, [6 x i64], [6 x %struct.curltime], i32, i8 }
%struct.pgrs_dir = type { i64, i64, i64, %struct.pgrs_measure }
%struct.pgrs_measure = type { %struct.curltime, i64 }
%struct.UrlState = type { %struct.curltime, i64, i64, %struct.dynbuf, ptr, i64, ptr, i32, i32, i32, ptr, i64, i32, i64, i32, ptr, %struct.digestdata, %struct.digestdata, %struct.auth, %struct.auth, %struct.Curl_async, ptr, %struct.curltime, %struct.Curl_tree, %struct.Curl_llist, [15 x %struct.time_node], ptr, ptr, i64, i64, %struct.Curl_data_priority, ptr, ptr, ptr, %struct.urlpieces, ptr, ptr, ptr, ptr, ptr, i64, %struct.dynbuf, %struct.Curl_llist, [2 x %struct.curl_header], ptr, i32, ptr, ptr, %struct.store_netrc, %struct.dynamically_allocated_data, i8, i8, i8, i8, i32 }
%struct.digestdata = type { ptr, ptr, ptr, ptr, ptr, ptr, i32, i8, i8 }
%struct.auth = type { i64, i64, i64, i8 }
%struct.Curl_async = type { ptr, ptr, ptr, ptr, i32, i32, i8 }
%struct.Curl_tree = type { ptr, ptr, ptr, ptr, %struct.curltime, ptr }
%struct.time_node = type { %struct.Curl_llist_node, %struct.curltime, i32 }
%struct.urlpieces = type { ptr, ptr, ptr, ptr, ptr, ptr, ptr, ptr }
%struct.dynbuf = type { ptr, i64, i64, i64 }
%struct.Curl_llist = type { ptr, ptr, ptr, i64 }
%struct.curl_header = type { ptr, ptr, i64, i64, i32, ptr }
%struct.store_netrc = type { %struct.dynbuf, ptr, i8 }
%struct.dynamically_allocated_data = type { ptr, ptr, ptr, ptr, ptr, ptr, ptr, ptr, ptr, ptr, ptr, ptr, ptr }
%struct.PureInfo = type { i32, i32, i32, i64, i64, i64, i64, i64, ptr, ptr, i64, i32, %struct.ip_quadruple, i32, ptr, i32, %struct.curl_certinfo, i32, i8 }
%struct.ip_quadruple = type { [46 x i8], [46 x i8], i32, i32 }
%struct.curl_certinfo = type { i32, ptr }
%struct.curl_tlssessioninfo = type { i32, ptr }
%struct.connectdata = type { %struct.Curl_llist_node, ptr, ptr, i64, ptr, i64, ptr, ptr, %struct.hostname, ptr, ptr, %struct.hostname, %struct.proxy_info, %struct.proxy_info, %struct.ip_quadruple, %struct.ip_quadruple, ptr, ptr, ptr, ptr, ptr, %struct.curltime, %struct.curltime, %struct.curltime, [2 x i32], [2 x ptr], [2 x ptr], [2 x ptr], %struct.anon, %struct.easy_pollset, %struct.ssl_primary_config, %struct.ssl_primary_config, %struct.ConnectBits, ptr, ptr, %struct.curltime, i32, i32, %struct.Curl_llist, i32, i32, %struct.ntlmdata, %struct.ntlmdata, %union.anon.1, ptr, i16, i32, i32, i32, i32, i16, i16, i8, i8, i8, i8, i8, i8, i8 }
%struct.hostname = type { ptr, ptr, ptr, ptr }
%struct.proxy_info = type { %struct.hostname, i32, i8, ptr, ptr }
%struct.anon = type { [2 x %struct.curltime], i32 }
%struct.ConnectBits = type { i64 }
%struct.ntlmdata = type { i32, [8 x i8], i32, ptr }
%union.anon.1 = type { %struct.ftp_conn }
%struct.ftp_conn = type { %struct.pingpong, ptr, ptr, ptr, ptr, ptr, ptr, ptr, i8, i64, ptr, i64, i32, i32, i32, i32, i32, i16, i8, i8, i8, i8, i8 }
%struct.pingpong = type { i64, i8, ptr, i64, i64, %struct.curltime, i64, %struct.dynbuf, %struct.dynbuf, i64, i64, ptr, ptr }
%struct.Curl_handler = type { ptr, ptr, ptr, ptr, ptr, ptr, ptr, ptr, ptr, ptr, ptr, ptr, ptr, ptr, ptr, ptr, ptr, i32, i32, i32, i32 }

@.str.8 = private unnamed_addr constant [41 x i8] c"REFUSED_STREAM, retrying a fresh connect\00", align 1
@.str.9 = private unnamed_addr constant [49 x i8] c"Connection died, tried %d times before giving up\00", align 1
@.str.10 = private unnamed_addr constant [60 x i8] c"Connection died, retrying a fresh connect (retry count: %d)\00", align 1
@Curl_cstrdup = external global ptr, align 8

; Function Attrs: nounwind uwtable
define dso_local i32 @Curl_retry_request(ptr noundef %0, ptr noundef %1) #0 {
  %3 = alloca i32, align 4
  %4 = alloca ptr, align 8
  %5 = alloca ptr, align 8
  %6 = alloca ptr, align 8
  %7 = alloca i8, align 1
  %8 = alloca i32, align 4
  store ptr %0, ptr %4, align 8, !tbaa !4
  store ptr %1, ptr %5, align 8, !tbaa !164
  call void @llvm.lifetime.start.p0(i64 8, ptr %6) #4
  %9 = load ptr, ptr %4, align 8, !tbaa !4
  %10 = getelementptr inbounds nuw %struct.Curl_easy, ptr %9, i32 0, i32 3
  %11 = load ptr, ptr %10, align 8, !tbaa !94
  store ptr %11, ptr %6, align 8, !tbaa !117
  call void @llvm.lifetime.start.p0(i64 1, ptr %7) #4
  store i8 0, ptr %7, align 1, !tbaa !118
  %12 = load ptr, ptr %5, align 8, !tbaa !164
  store ptr null, ptr %12, align 8, !tbaa !9
  %13 = load ptr, ptr %4, align 8, !tbaa !4
  %14 = getelementptr inbounds nuw %struct.Curl_easy, ptr %13, i32 0, i32 19
  %15 = getelementptr inbounds nuw %struct.UrlState, ptr %14, i32 0, i32 54
  %16 = load i32, ptr %15, align 4
  %17 = lshr i32 %16, 19
  %18 = and i32 %17, 1
  %19 = icmp ne i32 %18, 0
  br i1 %19, label %20, label %29

20:                                               ; preds = %2
  %21 = load ptr, ptr %6, align 8, !tbaa !117
  %22 = getelementptr inbounds nuw %struct.connectdata, ptr %21, i32 0, i32 33
  %23 = load ptr, ptr %22, align 8, !tbaa !166
  %24 = getelementptr inbounds nuw %struct.Curl_handler, ptr %23, i32 0, i32 18
  %25 = load i32, ptr %24, align 4, !tbaa !167
  %26 = and i32 %25, -1073479677
  %27 = icmp ne i32 %26, 0
  br i1 %27, label %29, label %28

28:                                               ; preds = %20
  store i32 0, ptr %3, align 4
  store i32 1, ptr %8, align 4
  br label %196

29:                                               ; preds = %20, %2
  %30 = load ptr, ptr %4, align 8, !tbaa !4
  %31 = getelementptr inbounds nuw %struct.Curl_easy, ptr %30, i32 0, i32 14
  %32 = getelementptr inbounds nuw %struct.SingleRequest, ptr %31, i32 0, i32 2
  %33 = load i64, ptr %32, align 8, !tbaa !169
  %34 = load ptr, ptr %4, align 8, !tbaa !4
  %35 = getelementptr inbounds nuw %struct.Curl_easy, ptr %34, i32 0, i32 14
  %36 = getelementptr inbounds nuw %struct.SingleRequest, ptr %35, i32 0, i32 5
  %37 = load i32, ptr %36, align 8, !tbaa !163
  %38 = zext i32 %37 to i64
  %39 = add nsw i64 %33, %38
  %40 = icmp eq i64 %39, 0
  br i1 %40, label %41, label %66

41:                                               ; preds = %29
  %42 = load ptr, ptr %6, align 8, !tbaa !117
  %43 = getelementptr inbounds nuw %struct.connectdata, ptr %42, i32 0, i32 32
  %44 = load i64, ptr %43, align 8
  %45 = lshr i64 %44, 6
  %46 = and i64 %45, 1
  %47 = trunc i64 %46 to i32
  %48 = icmp ne i32 %47, 0
  br i1 %48, label %49, label %66

49:                                               ; preds = %41
  %50 = load ptr, ptr %4, align 8, !tbaa !4
  %51 = getelementptr inbounds nuw %struct.Curl_easy, ptr %50, i32 0, i32 14
  %52 = getelementptr inbounds nuw %struct.SingleRequest, ptr %51, i32 0, i32 24
  %53 = load i32, ptr %52, align 1
  %54 = lshr i32 %53, 17
  %55 = and i32 %54, 1
  %56 = icmp ne i32 %55, 0
  br i1 %56, label %57, label %65

57:                                               ; preds = %49
  %58 = load ptr, ptr %6, align 8, !tbaa !117
  %59 = getelementptr inbounds nuw %struct.connectdata, ptr %58, i32 0, i32 33
  %60 = load ptr, ptr %59, align 8, !tbaa !166
  %61 = getelementptr inbounds nuw %struct.Curl_handler, ptr %60, i32 0, i32 18
  %62 = load i32, ptr %61, align 4, !tbaa !167
  %63 = and i32 %62, -1073741821
  %64 = icmp ne i32 %63, 0
  br i1 %64, label %65, label %66

65:                                               ; preds = %57, %49
  store i8 1, ptr %7, align 1, !tbaa !118
  br label %125

66:                                               ; preds = %57, %41, %29
  %67 = load ptr, ptr %4, align 8, !tbaa !4
  %68 = getelementptr inbounds nuw %struct.Curl_easy, ptr %67, i32 0, i32 19
  %69 = getelementptr inbounds nuw %struct.UrlState, ptr %68, i32 0, i32 54
  %70 = load i32, ptr %69, align 4
  %71 = lshr i32 %70, 4
  %72 = and i32 %71, 1
  %73 = icmp ne i32 %72, 0
  br i1 %73, label %74, label %124

74:                                               ; preds = %66
  %75 = load ptr, ptr %4, align 8, !tbaa !4
  %76 = getelementptr inbounds nuw %struct.Curl_easy, ptr %75, i32 0, i32 14
  %77 = getelementptr inbounds nuw %struct.SingleRequest, ptr %76, i32 0, i32 2
  %78 = load i64, ptr %77, align 8, !tbaa !169
  %79 = load ptr, ptr %4, align 8, !tbaa !4
  %80 = getelementptr inbounds nuw %struct.Curl_easy, ptr %79, i32 0, i32 14
  %81 = getelementptr inbounds nuw %struct.SingleRequest, ptr %80, i32 0, i32 5
  %82 = load i32, ptr %81, align 8, !tbaa !163
  %83 = zext i32 %82 to i64
  %84 = add nsw i64 %78, %83
  %85 = icmp eq i64 %84, 0
  br i1 %85, label %86, label %124

86:                                               ; preds = %74
  br label %87

87:                                               ; preds = %86
  %88 = load ptr, ptr %4, align 8, !tbaa !4
  %89 = icmp ne ptr %88, null
  br i1 %89, label %90, label %115

90:                                               ; preds = %87
  %91 = load ptr, ptr %4, align 8, !tbaa !4
  %92 = getelementptr inbounds nuw %struct.Curl_easy, ptr %91, i32 0, i32 15
  %93 = getelementptr inbounds nuw %struct.UserDefined, ptr %92, i32 0, i32 124
  %94 = load i64, ptr %93, align 2
  %95 = lshr i64 %94, 27
  %96 = and i64 %95, 1
  %97 = trunc i64 %96 to i32
  %98 = icmp ne i32 %97, 0
  br i1 %98, label %99, label %115

99:                                               ; preds = %90
  %100 = load ptr, ptr %4, align 8, !tbaa !4
  %101 = getelementptr inbounds nuw %struct.Curl_easy, ptr %100, i32 0, i32 19
  %102 = getelementptr inbounds nuw %struct.UrlState, ptr %101, i32 0, i32 47
  %103 = load ptr, ptr %102, align 8, !tbaa !89
  %104 = icmp ne ptr %103, null
  br i1 %104, label %105, label %113

105:                                              ; preds = %99
  %106 = load ptr, ptr %4, align 8, !tbaa !4
  %107 = getelementptr inbounds nuw %struct.Curl_easy, ptr %106, i32 0, i32 19
  %108 = getelementptr inbounds nuw %struct.UrlState, ptr %107, i32 0, i32 47
  %109 = load ptr, ptr %108, align 8, !tbaa !89
  %110 = getelementptr inbounds nuw %struct.curl_trc_feat, ptr %109, i32 0, i32 1
  %111 = load i32, ptr %110, align 8, !tbaa !90
  %112 = icmp sge i32 %111, 1
  br i1 %112, label %113, label %115

113:                                              ; preds = %105, %99
  %114 = load ptr, ptr %4, align 8, !tbaa !4
  call void (ptr, ptr, ...) @Curl_infof(ptr noundef %114, ptr noundef @.str.8)
  br label %115

115:                                              ; preds = %113, %105, %90, %87
  br label %116

116:                                              ; preds = %115
  br label %117

117:                                              ; preds = %116
  %118 = load ptr, ptr %4, align 8, !tbaa !4
  %119 = getelementptr inbounds nuw %struct.Curl_easy, ptr %118, i32 0, i32 19
  %120 = getelementptr inbounds nuw %struct.UrlState, ptr %119, i32 0, i32 54
  %121 = load i32, ptr %120, align 4
  %122 = and i32 %121, -17
  %123 = or i32 %122, 0
  store i32 %123, ptr %120, align 4
  store i8 1, ptr %7, align 1, !tbaa !118
  br label %124

124:                                              ; preds = %117, %74, %66
  br label %125

125:                                              ; preds = %124, %65
  %126 = load i8, ptr %7, align 1, !tbaa !118, !range !120, !noundef !121
  %127 = trunc i8 %126 to i1
  br i1 %127, label %128, label %195

128:                                              ; preds = %125
  %129 = load ptr, ptr %4, align 8, !tbaa !4
  %130 = getelementptr inbounds nuw %struct.Curl_easy, ptr %129, i32 0, i32 19
  %131 = getelementptr inbounds nuw %struct.UrlState, ptr %130, i32 0, i32 9
  %132 = load i32, ptr %131, align 8, !tbaa !170
  %133 = add nsw i32 %132, 1
  store i32 %133, ptr %131, align 8, !tbaa !170
  %134 = icmp sge i32 %132, 5
  br i1 %134, label %135, label %140

135:                                              ; preds = %128
  %136 = load ptr, ptr %4, align 8, !tbaa !4
  call void (ptr, ptr, ...) @Curl_failf(ptr noundef %136, ptr noundef @.str.9, i32 noundef 5)
  %137 = load ptr, ptr %4, align 8, !tbaa !4
  %138 = getelementptr inbounds nuw %struct.Curl_easy, ptr %137, i32 0, i32 19
  %139 = getelementptr inbounds nuw %struct.UrlState, ptr %138, i32 0, i32 9
  store i32 0, ptr %139, align 8, !tbaa !170
  store i32 55, ptr %3, align 4
  store i32 1, ptr %8, align 4
  br label %196

140:                                              ; preds = %128
  br label %141

141:                                              ; preds = %140
  %142 = load ptr, ptr %4, align 8, !tbaa !4
  %143 = icmp ne ptr %142, null
  br i1 %143, label %144, label %173

144:                                              ; preds = %141
  %145 = load ptr, ptr %4, align 8, !tbaa !4
  %146 = getelementptr inbounds nuw %struct.Curl_easy, ptr %145, i32 0, i32 15
  %147 = getelementptr inbounds nuw %struct.UserDefined, ptr %146, i32 0, i32 124
  %148 = load i64, ptr %147, align 2
  %149 = lshr i64 %148, 27
  %150 = and i64 %149, 1
  %151 = trunc i64 %150 to i32
  %152 = icmp ne i32 %151, 0
  br i1 %152, label %153, label %173

153:                                              ; preds = %144
  %154 = load ptr, ptr %4, align 8, !tbaa !4
  %155 = getelementptr inbounds nuw %struct.Curl_easy, ptr %154, i32 0, i32 19
  %156 = getelementptr inbounds nuw %struct.UrlState, ptr %155, i32 0, i32 47
  %157 = load ptr, ptr %156, align 8, !tbaa !89
  %158 = icmp ne ptr %157, null
  br i1 %158, label %159, label %167

159:                                              ; preds = %153
  %160 = load ptr, ptr %4, align 8, !tbaa !4
  %161 = getelementptr inbounds nuw %struct.Curl_easy, ptr %160, i32 0, i32 19
  %162 = getelementptr inbounds nuw %struct.UrlState, ptr %161, i32 0, i32 47
  %163 = load ptr, ptr %162, align 8, !tbaa !89
  %164 = getelementptr inbounds nuw %struct.curl_trc_feat, ptr %163, i32 0, i32 1
  %165 = load i32, ptr %164, align 8, !tbaa !90
  %166 = icmp sge i32 %165, 1
  br i1 %166, label %167, label %173

167:                                              ; preds = %159, %153
  %168 = load ptr, ptr %4, align 8, !tbaa !4
  %169 = load ptr, ptr %4, align 8, !tbaa !4
  %170 = getelementptr inbounds nuw %struct.Curl_easy, ptr %169, i32 0, i32 19
  %171 = getelementptr inbounds nuw %struct.UrlState, ptr %170, i32 0, i32 9
  %172 = load i32, ptr %171, align 8, !tbaa !170
  call void (ptr, ptr, ...) @Curl_infof(ptr noundef %168, ptr noundef @.str.10, i32 noundef %172)
  br label %173

173:                                              ; preds = %167, %159, %144, %141
  br label %174

174:                                              ; preds = %173
  br label %175

175:                                              ; preds = %174
  %176 = load ptr, ptr @Curl_cstrdup, align 8, !tbaa !131
  %177 = load ptr, ptr %4, align 8, !tbaa !4
  %178 = getelementptr inbounds nuw %struct.Curl_easy, ptr %177, i32 0, i32 19
  %179 = getelementptr inbounds nuw %struct.UrlState, ptr %178, i32 0, i32 35
  %180 = load ptr, ptr %179, align 8, !tbaa !129
  %181 = call ptr %176(ptr noundef %180)
  %182 = load ptr, ptr %5, align 8, !tbaa !164
  store ptr %181, ptr %182, align 8, !tbaa !9
  %183 = load ptr, ptr %5, align 8, !tbaa !164
  %184 = load ptr, ptr %183, align 8, !tbaa !9
  %185 = icmp ne ptr %184, null
  br i1 %185, label %187, label %186

186:                                              ; preds = %175
  store i32 27, ptr %3, align 4
  store i32 1, ptr %8, align 4
  br label %196

187:                                              ; preds = %175
  %188 = load ptr, ptr %6, align 8, !tbaa !117
  call void @Curl_conncontrol(ptr noundef %188, i32 noundef 1)
  %189 = load ptr, ptr %6, align 8, !tbaa !117
  %190 = getelementptr inbounds nuw %struct.connectdata, ptr %189, i32 0, i32 32
  %191 = load i64, ptr %190, align 8
  %192 = and i64 %191, -16385
  %193 = or i64 %192, 16384
  store i64 %193, ptr %190, align 8
  %194 = load ptr, ptr %4, align 8, !tbaa !4
  call void @Curl_creader_set_rewind(ptr noundef %194, i1 noundef zeroext true)
  br label %195

195:                                              ; preds = %187, %125
  store i32 0, ptr %3, align 4
  store i32 1, ptr %8, align 4
  br label %196

196:                                              ; preds = %195, %186, %135, %28
  call void @llvm.lifetime.end.p0(i64 1, ptr %7) #4
  call void @llvm.lifetime.end.p0(i64 8, ptr %6) #4
  %197 = load i32, ptr %3, align 4
  ret i32 %197
}