; Function Attrs: nounwind uwtable
define dso_local range(i32 0, 56) i32 @Curl_retry_request(ptr noundef %0, ptr noundef writeonly captures(none) initializes((0, 8)) %1) local_unnamed_addr #0 {
  %3 = getelementptr inbounds nuw i8, ptr %0, i64 24
  %4 = load ptr, ptr %3, align 8, !tbaa !87
  store ptr null, ptr %1, align 8, !tbaa !101
  %5 = getelementptr inbounds nuw i8, ptr %0, i64 4876
  %6 = load i32, ptr %5, align 4
  %7 = and i32 %6, 524288
  %.not = icmp eq i32 %7, 0
  br i1 %.not, label %14, label %8

8:                                                ; preds = %2
  %9 = getelementptr inbounds nuw i8, ptr %4, i64 928
  %10 = load ptr, ptr %9, align 8, !tbaa !112
  %11 = getelementptr inbounds nuw i8, ptr %10, i64 140
  %12 = load i32, ptr %11, align 4, !tbaa !116
  %13 = and i32 %12, -1073479677
  %.not38 = icmp eq i32 %13, 0
  br i1 %.not38, label %.thread51, label %14

14:                                               ; preds = %8, %2
  %15 = getelementptr inbounds nuw i8, ptr %0, i64 248
  %16 = load i64, ptr %15, align 8, !tbaa !105
  %17 = getelementptr inbounds nuw i8, ptr %0, i64 280
  %18 = load i32, ptr %17, align 8, !tbaa !158
  %19 = zext i32 %18 to i64
  %20 = sub nsw i64 0, %19
  %21 = icmp eq i64 %16, %20
  br i1 %21, label %22, label %.thread51

22:                                               ; preds = %14
  %23 = getelementptr inbounds nuw i8, ptr %4, i64 920
  %24 = load i64, ptr %23, align 8
  %25 = and i64 %24, 64
  %.not39 = icmp eq i64 %25, 0
  br i1 %.not39, label %36, label %26

26:                                               ; preds = %22
  %27 = getelementptr inbounds nuw i8, ptr %0, i64 449
  %28 = load i32, ptr %27, align 1
  %29 = and i32 %28, 131072
  %.not40 = icmp eq i32 %29, 0
  br i1 %.not40, label %.critedge, label %30

30:                                               ; preds = %26
  %31 = getelementptr inbounds nuw i8, ptr %4, i64 928
  %32 = load ptr, ptr %31, align 8, !tbaa !112
  %33 = getelementptr inbounds nuw i8, ptr %32, i64 140
  %34 = load i32, ptr %33, align 4, !tbaa !116
  %35 = and i32 %34, -1073741821
  %.not41 = icmp eq i32 %35, 0
  br i1 %.not41, label %36, label %.critedge

36:                                               ; preds = %30, %22
  %37 = and i32 %6, 16
  %.not42 = icmp eq i32 %37, 0
  br i1 %.not42, label %.thread51, label %38

38:                                               ; preds = %36
  %39 = getelementptr inbounds nuw i8, ptr %0, i64 2562
  %40 = load i64, ptr %39, align 2
  %41 = and i64 %40, 134217728
  %.not44 = icmp eq i64 %41, 0
  br i1 %.not44, label %50, label %42

42:                                               ; preds = %38
  %43 = getelementptr inbounds nuw i8, ptr %0, i64 4712
  %44 = load ptr, ptr %43, align 8, !tbaa !84
  %.not45 = icmp eq ptr %44, null
  br i1 %.not45, label %49, label %45

45:                                               ; preds = %42
  %46 = getelementptr inbounds nuw i8, ptr %44, i64 8
  %47 = load i32, ptr %46, align 8, !tbaa !85
  %48 = icmp sgt i32 %47, 0
  br i1 %48, label %49, label %50

49:                                               ; preds = %45, %42
  tail call void (ptr, ptr, ...) @Curl_infof(ptr noundef nonnull %0, ptr noundef nonnull @.str.8) #6
  %.pre = load i32, ptr %5, align 4
  br label %50

50:                                               ; preds = %49, %45, %38
  %51 = phi i32 [ %.pre, %49 ], [ %6, %45 ], [ %6, %38 ]
  %52 = and i32 %51, -17
  store i32 %52, ptr %5, align 4
  br label %.critedge

.critedge:                                        ; preds = %26, %30, %50
  %53 = getelementptr inbounds nuw i8, ptr %0, i64 3104
  %54 = load i32, ptr %53, align 8, !tbaa !159
  %55 = add nsw i32 %54, 1
  store i32 %55, ptr %53, align 8, !tbaa !159
  %56 = icmp sgt i32 %54, 4
  br i1 %56, label %57, label %58

57:                                               ; preds = %.critedge
  tail call void (ptr, ptr, ...) @Curl_failf(ptr noundef nonnull %0, ptr noundef nonnull @.str.9, i32 noundef 5) #6
  store i32 0, ptr %53, align 8, !tbaa !159
  br label %.thread51

58:                                               ; preds = %.critedge
  %59 = getelementptr inbounds nuw i8, ptr %0, i64 2562
  %60 = load i64, ptr %59, align 2
  %61 = and i64 %60, 134217728
  %.not47 = icmp eq i64 %61, 0
  br i1 %.not47, label %70, label %62

62:                                               ; preds = %58
  %63 = getelementptr inbounds nuw i8, ptr %0, i64 4712
  %64 = load ptr, ptr %63, align 8, !tbaa !84
  %.not48 = icmp eq ptr %64, null
  br i1 %.not48, label %69, label %65

65:                                               ; preds = %62
  %66 = getelementptr inbounds nuw i8, ptr %64, i64 8
  %67 = load i32, ptr %66, align 8, !tbaa !85
  %68 = icmp sgt i32 %67, 0
  br i1 %68, label %69, label %70

69:                                               ; preds = %65, %62
  tail call void (ptr, ptr, ...) @Curl_infof(ptr noundef nonnull %0, ptr noundef nonnull @.str.10, i32 noundef %55) #6
  br label %70

70:                                               ; preds = %69, %65, %58
  %71 = load ptr, ptr @Curl_cstrdup, align 8, !tbaa !127
  %72 = getelementptr inbounds nuw i8, ptr %0, i64 4480
  %73 = load ptr, ptr %72, align 8, !tbaa !125
  %74 = tail call ptr %71(ptr noundef %73) #6
  store ptr %74, ptr %1, align 8, !tbaa !101
  %.not49 = icmp eq ptr %74, null
  br i1 %.not49, label %.thread51, label %75

75:                                               ; preds = %70
  tail call void @Curl_conncontrol(ptr noundef nonnull %4, i32 noundef 1) #6
  %76 = load i64, ptr %23, align 8
  %77 = or i64 %76, 16384
  store i64 %77, ptr %23, align 8
  tail call void @Curl_creader_set_rewind(ptr noundef nonnull %0, i1 noundef zeroext true) #6
  br label %.thread51

.thread51:                                        ; preds = %36, %14, %75, %70, %8, %57
  %.034 = phi i32 [ 55, %57 ], [ 0, %8 ], [ 27, %70 ], [ 0, %36 ], [ 0, %75 ], [ 0, %14 ]
  ret i32 %.034
}